target datalayout = "e-m:e-p270:32:32-p271:32:32-p272:64:64-i64:64-i128:128-f80:128-n8:16:32:64-S128"
target triple = "x86_64-pc-linux-gnu"

%class.Klass = type <{ %class.Metadata, i32, i32, i32, i32, ptr, ptr, ptr, [8 x ptr], %class.OopHandle, ptr, ptr, ptr, ptr, ptr, i32, %class.AccessFlags, i64, i64, i8, i8, i16, i16, [2 x i8], i32, [4 x i8] }>
%class.Metadata = type { ptr }
%class.OopHandle = type { ptr }
%class.AccessFlags = type { i32 }
%class.ClassLoaderData = type { %class.WeakHandle, %class.OopHandle, ptr, ptr, i8, i8, i8, i32, i32, %"class.ClassLoaderData::ChunkedHandleList", ptr, ptr, ptr, ptr, ptr, ptr, ptr, ptr, ptr, ptr, ptr, ptr, i64 }
%class.WeakHandle = type { ptr }
%"class.ClassLoaderData::ChunkedHandleList" = type { ptr }

@_ZL10_artifacts = internal global ptr null, align 8

; Function Attrs: mustprogress nounwind uwtable
define linkonce_odr hidden noundef i64 @_ZNK5Klass8trace_idEv(ptr noundef nonnull align 8 dereferenceable(196) %0) #1 comdat align 2 {
  %2 = alloca ptr, align 8
  store ptr %0, ptr %2, align 8
  %3 = load ptr, ptr %2, align 8
  %4 = getelementptr inbounds %class.Klass, ptr %3, i32 0, i32 17
  %5 = load i64, ptr %4, align 8
  ret i64 %5
}

; Function Attrs: mustprogress nounwind uwtable
define linkonce_odr hidden noundef i64 @_ZNK15ClassLoaderData8trace_idEv(ptr noundef nonnull align 8 dereferenceable(160) %0) #1 comdat align 2 {
  %2 = alloca ptr, align 8
  store ptr %0, ptr %2, align 8
  %3 = load ptr, ptr %2, align 8
  %4 = getelementptr inbounds %class.ClassLoaderData, ptr %3, i32 0, i32 22
  %5 = load i64, ptr %4, align 8
  ret i64 %5
}

; Function Attrs: mustprogress nounwind uwtable
define linkonce_odr hidden noundef i64 @_ZN14JfrTraceIdBits4loadI5KlassEEmPKT_(ptr noundef %0) #1 comdat align 2 {
  %2 = alloca ptr, align 8
  store ptr %0, ptr %2, align 8
  %3 = load ptr, ptr %2, align 8
  %4 = call noundef i64 @_ZNK5Klass8trace_idEv(ptr noundef nonnull align 8 dereferenceable(196) %3)
  ret i64 %4
}

; Function Attrs: mustprogress nounwind uwtable
define linkonce_odr hidden noundef i64 @_ZN14JfrTraceIdBits4loadI15ClassLoaderDataEEmPKT_(ptr noundef %0) #1 comdat align 2 {
  %2 = alloca ptr, align 8
  store ptr %0, ptr %2, align 8
  %3 = load ptr, ptr %2, align 8
  %4 = call noundef i64 @_ZNK15ClassLoaderData8trace_idEv(ptr noundef nonnull align 8 dereferenceable(160) %3)
  ret i64 %4
}

; Function Attrs: mustprogress nounwind uwtable
define linkonce_odr hidden noundef i64 @_Z8raw_loadI5KlassEmPKT_(ptr noundef %0) #1 comdat {
  %2 = alloca ptr, align 8
  store ptr %0, ptr %2, align 8
  %3 = load ptr, ptr %2, align 8
  %4 = call noundef i64 @_ZN14JfrTraceIdBits4loadI5KlassEEmPKT_(ptr noundef %3)
  %5 = lshr i64 %4, 16
  ret i64 %5
}

; Function Attrs: mustprogress nounwind uwtable
define linkonce_odr hidden noundef i64 @_Z8raw_loadI15ClassLoaderDataEmPKT_(ptr noundef %0) #1 comdat {
  %2 = alloca ptr, align 8
  store ptr %0, ptr %2, align 8
  %3 = load ptr, ptr %2, align 8
  %4 = call noundef i64 @_ZN14JfrTraceIdBits4loadI15ClassLoaderDataEEmPKT_(ptr noundef %3)
  %5 = lshr i64 %4, 16
  ret i64 %5
}

; Function Attrs: mustprogress nounwind uwtable
define linkonce_odr hidden noundef i64 @_ZN10JfrTraceId8load_rawEPK5Klass(ptr noundef %0) #1 comdat align 2 {
  %2 = alloca ptr, align 8
  store ptr %0, ptr %2, align 8
  %3 = load ptr, ptr %2, align 8
  %4 = call noundef i64 @_Z8raw_loadI5KlassEmPKT_(ptr noundef %3)
  ret i64 %4
}

; Function Attrs: mustprogress nounwind uwtable
define linkonce_odr hidden noundef i64 @_ZN10JfrTraceId8load_rawEPK15ClassLoaderData(ptr noundef %0) #1 comdat align 2 {
  %2 = alloca ptr, align 8
  store ptr %0, ptr %2, align 8
  %3 = load ptr, ptr %2, align 8
  %4 = call noundef i64 @_Z8raw_loadI15ClassLoaderDataEmPKT_(ptr noundef %3)
  ret i64 %4
}

; Function Attrs: mustprogress nounwind uwtable
define internal noundef i64 @_ZL11mark_symbolP6Symbolb(ptr noundef %0, i1 noundef zeroext %1) #1 {
  %3 = alloca ptr, align 8
  %4 = alloca i8, align 1
  store ptr %0, ptr %3, align 8
  %5 = zext i1 %1 to i8
  store i8 %5, ptr %4, align 1
  %6 = load ptr, ptr %3, align 8
  %7 = icmp ne ptr %6, null
  br i1 %7, label %8, label %14

8:                                                ; preds = %2
  %9 = load ptr, ptr @_ZL10_artifacts, align 8
  %10 = load ptr, ptr %3, align 8
  %11 = load i8, ptr %4, align 1
  %12 = trunc i8 %11 to i1
  %13 = call noundef i64 @_ZN14JfrArtifactSet4markEPK6Symbolb(ptr noundef nonnull align 8 dereferenceable(41) %9, ptr noundef %10, i1 noundef zeroext %12)
  br label %15

14:                                               ; preds = %2
  br label %15

15:                                               ; preds = %14, %8
  %16 = phi i64 [ %13, %8 ], [ 0, %14 ]
  ret i64 %16
}

; Function Attrs: mustprogress nounwind uwtable
define linkonce_odr hidden noundef ptr @_ZNK15ClassLoaderData4nameEv(ptr noundef nonnull align 8 dereferenceable(160) %0) #1 comdat align 2 {
  %2 = alloca ptr, align 8
  store ptr %0, ptr %2, align 8
  %3 = load ptr, ptr %2, align 8
  %4 = getelementptr inbounds %class.ClassLoaderData, ptr %3, i32 0, i32 20
  %5 = load ptr, ptr %4, align 8
  ret ptr %5
}

; Function Attrs: mustprogress nounwind uwtable
define internal noundef i64 @_ZL11artifact_idI5KlassEmPKT_(ptr noundef %0) #1 {
  %2 = alloca ptr, align 8
  store ptr %0, ptr %2, align 8
  %3 = load ptr, ptr %2, align 8
  %4 = call noundef i64 @_ZN10JfrTraceId8load_rawEPK5Klass(ptr noundef %3)
  ret i64 %4
}

; Function Attrs: mustprogress nounwind uwtable
define internal noundef i64 @_ZL18get_bootstrap_nameb(i1 noundef zeroext %0) #1 {
  %2 = alloca i8, align 1
  %3 = zext i1 %0 to i8
  store i8 %3, ptr %2, align 1
  %4 = load ptr, ptr @_ZL10_artifacts, align 8
  %5 = load i8, ptr %2, align 1
  %6 = trunc i8 %5 to i1
  %7 = call noundef i64 @_ZN14JfrArtifactSet14bootstrap_nameEb(ptr noundef nonnull align 8 dereferenceable(41) %4, i1 noundef zeroext %6)
  ret i64 %7
}

; Function Attrs: mustprogress nounwind uwtable
define internal noundef i64 @_ZL11artifact_idI15ClassLoaderDataEmPKT_(ptr noundef %0) #1 {
  %2 = alloca ptr, align 8
  store ptr %0, ptr %2, align 8
  %3 = load ptr, ptr %2, align 8
  %4 = call noundef i64 @_ZN10JfrTraceId8load_rawEPK15ClassLoaderData(ptr noundef %3)
  ret i64 %4
}

; Function Attrs: mustprogress nounwind uwtable
define linkonce_odr hidden noundef ptr @_ZNK15ClassLoaderData18class_loader_klassEv(ptr noundef nonnull align 8 dereferenceable(160) %0) #1 comdat align 2 {
  %2 = alloca ptr, align 8
  store ptr %0, ptr %2, align 8
  %3 = load ptr, ptr %2, align 8
  %4 = getelementptr inbounds %class.ClassLoaderData, ptr %3, i32 0, i32 19
  %5 = load ptr, ptr %4, align 8
  ret ptr %5
}

; Function Attrs: mustprogress nounwind uwtable
define internal noundef i32 @_ZL9write_cldP19JfrCheckpointWriterPK15ClassLoaderDatab(ptr noundef %0, ptr noundef %1, i1 noundef zeroext %2) #1 {
  %4 = alloca ptr, align 8
  %5 = alloca ptr, align 8
  %6 = alloca i8, align 1
  %7 = alloca ptr, align 8
  store ptr %0, ptr %4, align 8
  store ptr %1, ptr %5, align 8
  %8 = zext i1 %2 to i8
  store i8 %8, ptr %6, align 1
  %9 = load ptr, ptr %5, align 8
  %10 = call noundef ptr @_ZNK15ClassLoaderData18class_loader_klassEv(ptr noundef nonnull align 8 dereferenceable(160) %9)
  store ptr %10, ptr %7, align 8
  %11 = load ptr, ptr %7, align 8
  %12 = icmp eq ptr %11, null
  br i1 %12, label %13, label %22

13:                                               ; preds = %3
  %14 = load ptr, ptr %4, align 8
  %15 = load ptr, ptr %5, align 8
  %16 = call noundef i64 @_ZL11artifact_idI15ClassLoaderDataEmPKT_(ptr noundef %15)
  call void @_ZN10WriterHostI11EncoderHostI20BigEndianEncoderImplS1_ES0_I20Varint128EncoderImplS1_E30AcquireReleaseMemoryWriterHostI7AdapterI18JfrCheckpointFlushE8StackObjEE5writeImEEvT_(ptr noundef nonnull align 8 dereferenceable(41) %14, i64 noundef %16)
  %17 = load ptr, ptr %4, align 8
  call void @_ZN10WriterHostI11EncoderHostI20BigEndianEncoderImplS1_ES0_I20Varint128EncoderImplS1_E30AcquireReleaseMemoryWriterHostI7AdapterI18JfrCheckpointFlushE8StackObjEE5writeImEEvT_(ptr noundef nonnull align 8 dereferenceable(41) %17, i64 noundef 0)
  %18 = load ptr, ptr %4, align 8
  %19 = load i8, ptr %6, align 1
  %20 = trunc i8 %19 to i1
  %21 = call noundef i64 @_ZL18get_bootstrap_nameb(i1 noundef zeroext %20)
  call void @_ZN10WriterHostI11EncoderHostI20BigEndianEncoderImplS1_ES0_I20Varint128EncoderImplS1_E30AcquireReleaseMemoryWriterHostI7AdapterI18JfrCheckpointFlushE8StackObjEE5writeImEEvT_(ptr noundef nonnull align 8 dereferenceable(41) %18, i64 noundef %21)
  br label %35

22:                                               ; preds = %3
  %23 = load ptr, ptr %4, align 8
  %24 = load ptr, ptr %5, align 8
  %25 = call noundef i64 @_ZL11artifact_idI15ClassLoaderDataEmPKT_(ptr noundef %24)
  call void @_ZN10WriterHostI11EncoderHostI20BigEndianEncoderImplS1_ES0_I20Varint128EncoderImplS1_E30AcquireReleaseMemoryWriterHostI7AdapterI18JfrCheckpointFlushE8StackObjEE5writeImEEvT_(ptr noundef nonnull align 8 dereferenceable(41) %23, i64 noundef %25)
  %26 = load ptr, ptr %4, align 8
  %27 = load ptr, ptr %7, align 8
  %28 = call noundef i64 @_ZL11artifact_idI5KlassEmPKT_(ptr noundef %27)
  call void @_ZN10WriterHostI11EncoderHostI20BigEndianEncoderImplS1_ES0_I20Varint128EncoderImplS1_E30AcquireReleaseMemoryWriterHostI7AdapterI18JfrCheckpointFlushE8StackObjEE5writeImEEvT_(ptr noundef nonnull align 8 dereferenceable(41) %26, i64 noundef %28)
  %29 = load ptr, ptr %4, align 8
  %30 = load ptr, ptr %5, align 8
  %31 = call noundef ptr @_ZNK15ClassLoaderData4nameEv(ptr noundef nonnull align 8 dereferenceable(160) %30)
  %32 = load i8, ptr %6, align 1
  %33 = trunc i8 %32 to i1
  %34 = call noundef i64 @_ZL11mark_symbolP6Symbolb(ptr noundef %31, i1 noundef zeroext %33)
  call void @_ZN10WriterHostI11EncoderHostI20BigEndianEncoderImplS1_ES0_I20Varint128EncoderImplS1_E30AcquireReleaseMemoryWriterHostI7AdapterI18JfrCheckpointFlushE8StackObjEE5writeImEEvT_(ptr noundef nonnull align 8 dereferenceable(41) %29, i64 noundef %34)
  br label %35

35:                                               ; preds = %22, %13
  ret i32 1
}