; Function Attrs: mustprogress nounwind uwtable
define internal fastcc void @_ZL9write_cldP19JfrCheckpointWriterPK15ClassLoaderDatab(ptr noundef nonnull %0, ptr nocapture noundef readonly %1, i1 noundef zeroext %2) unnamed_addr #0 {
  %4 = alloca %class.JfrCheckpointFlush, align 8
  %5 = getelementptr inbounds i8, ptr %1, i64 128
  %6 = load ptr, ptr %5, align 8
  %7 = icmp eq ptr %6, null
  %8 = getelementptr i8, ptr %1, i64 152
  %.val13 = load i64, ptr %8, align 8
  %9 = lshr i64 %.val13, 16
  tail call void @_ZN10WriterHostI11EncoderHostI20BigEndianEncoderImplS1_ES0_I20Varint128EncoderImplS1_E30AcquireReleaseMemoryWriterHostI7AdapterI18JfrCheckpointFlushE8StackObjEE5writeImEEvT_(ptr noundef nonnull align 8 dereferenceable(41) %0, i64 noundef %9)
  br i1 %7, label %10, label %51

10:                                               ; preds = %3
  %11 = getelementptr inbounds i8, ptr %0, i64 16
  %12 = load ptr, ptr %11, align 8
  %.not.i.i.i = icmp eq ptr %12, null
  br i1 %.not.i.i.i, label %_ZN10WriterHostI11EncoderHostI20BigEndianEncoderImplS1_ES0_I20Varint128EncoderImplS1_E30AcquireReleaseMemoryWriterHostI7AdapterI18JfrCheckpointFlushE8StackObjEE5writeImEEvT_.exit, label %13

13:                                               ; preds = %10
  %14 = getelementptr inbounds i8, ptr %0, i64 8
  %15 = load ptr, ptr %14, align 8
  %16 = ptrtoint ptr %12 to i64
  %17 = ptrtoint ptr %15 to i64
  %18 = sub i64 %16, %17
  %19 = icmp ult i64 %18, 9
  br i1 %19, label %20, label %_ZN10WriterHostI11EncoderHostI20BigEndianEncoderImplS1_ES0_I20Varint128EncoderImplS1_E30AcquireReleaseMemoryWriterHostI7AdapterI18JfrCheckpointFlushE8StackObjEE11ensure_sizeEm.exit.i.i

20:                                               ; preds = %13
  %21 = load ptr, ptr %0, align 8
  %22 = ptrtoint ptr %21 to i64
  %23 = sub i64 %17, %22
  %24 = getelementptr inbounds i8, ptr %0, i64 24
  call void @llvm.lifetime.start.p0(i64 8, ptr nonnull %4)
  %25 = load ptr, ptr %24, align 8
  %26 = getelementptr inbounds i8, ptr %0, i64 32
  %27 = load ptr, ptr %26, align 8
  call void @_ZN18JfrCheckpointFlushC1EP9JfrBuffermmP6Thread(ptr noundef nonnull align 8 dereferenceable(8) %4, ptr noundef %25, i64 noundef %23, i64 noundef 9, ptr noundef %27) #9
  %28 = load ptr, ptr %4, align 8
  store ptr %28, ptr %24, align 8
  %.not5.i.i.i = icmp eq ptr %28, null
  call void @llvm.lifetime.end.p0(i64 8, ptr nonnull %4)
  br i1 %.not5.i.i.i, label %.sink.split.i.i.i, label %_ZN11StorageHostI7AdapterI18JfrCheckpointFlushE8StackObjE11accommodateEmm.exit.thread.i.i.i

_ZN11StorageHostI7AdapterI18JfrCheckpointFlushE8StackObjE11accommodateEmm.exit.thread.i.i.i: ; preds = %20
  %29 = getelementptr inbounds i8, ptr %28, i64 16
  %30 = load ptr, ptr %29, align 8
  store ptr %30, ptr %0, align 8
  store ptr %30, ptr %14, align 8
  %31 = getelementptr inbounds i8, ptr %28, i64 40
  %32 = load i16, ptr %31, align 8
  %33 = zext i16 %32 to i64
  %34 = getelementptr inbounds i8, ptr %28, i64 %33
  %35 = getelementptr inbounds i8, ptr %28, i64 32
  %36 = load i64, ptr %35, align 8
  %37 = getelementptr inbounds i8, ptr %34, i64 %36
  %38 = getelementptr inbounds i8, ptr %30, i64 %23
  store ptr %38, ptr %14, align 8
  br label %.sink.split.i.i.i

.sink.split.i.i.i:                                ; preds = %_ZN11StorageHostI7AdapterI18JfrCheckpointFlushE8StackObjE11accommodateEmm.exit.thread.i.i.i, %20
  %.sink.i.i.i = phi ptr [ %37, %_ZN11StorageHostI7AdapterI18JfrCheckpointFlushE8StackObjE11accommodateEmm.exit.thread.i.i.i ], [ null, %20 ]
  %.0.ph.i.i.i = phi ptr [ %38, %_ZN11StorageHostI7AdapterI18JfrCheckpointFlushE8StackObjE11accommodateEmm.exit.thread.i.i.i ], [ null, %20 ]
  store ptr %.sink.i.i.i, ptr %11, align 8
  br label %_ZN10WriterHostI11EncoderHostI20BigEndianEncoderImplS1_ES0_I20Varint128EncoderImplS1_E30AcquireReleaseMemoryWriterHostI7AdapterI18JfrCheckpointFlushE8StackObjEE11ensure_sizeEm.exit.i.i

_ZN10WriterHostI11EncoderHostI20BigEndianEncoderImplS1_ES0_I20Varint128EncoderImplS1_E30AcquireReleaseMemoryWriterHostI7AdapterI18JfrCheckpointFlushE8StackObjEE11ensure_sizeEm.exit.i.i: ; preds = %.sink.split.i.i.i, %13
  %.0.i.i.i = phi ptr [ %15, %13 ], [ %.0.ph.i.i.i, %.sink.split.i.i.i ]
  %.not.i.i = icmp eq ptr %.0.i.i.i, null
  br i1 %.not.i.i, label %_ZN10WriterHostI11EncoderHostI20BigEndianEncoderImplS1_ES0_I20Varint128EncoderImplS1_E30AcquireReleaseMemoryWriterHostI7AdapterI18JfrCheckpointFlushE8StackObjEE5writeImEEvT_.exit, label %39

39:                                               ; preds = %_ZN10WriterHostI11EncoderHostI20BigEndianEncoderImplS1_ES0_I20Varint128EncoderImplS1_E30AcquireReleaseMemoryWriterHostI7AdapterI18JfrCheckpointFlushE8StackObjEE11ensure_sizeEm.exit.i.i
  %40 = getelementptr inbounds i8, ptr %0, i64 40
  %41 = load i8, ptr %40, align 8
  %42 = trunc i8 %41 to i1
  br i1 %42, label %43, label %44

43:                                               ; preds = %39
  store i8 0, ptr %.0.i.i.i, align 1
  br label %_ZN10WriterHostI11EncoderHostI20BigEndianEncoderImplS1_ES0_I20Varint128EncoderImplS1_E30AcquireReleaseMemoryWriterHostI7AdapterI18JfrCheckpointFlushE8StackObjEE5writeImEEPhPKT_mSD_.exit.i.i

44:                                               ; preds = %39
  %45 = ptrtoint ptr %.0.i.i.i to i64
  %46 = and i64 %45, 7
  %47 = icmp eq i64 %46, 0
  br i1 %47, label %_ZN20BigEndianEncoderImpl6encodeImEEmT_Ph.exit.i.i.i.i.i, label %_ZN20BigEndianEncoderImpl6encodeImEEmT_Ph.exit.i.thread.i.i.i.i

_ZN20BigEndianEncoderImpl6encodeImEEmT_Ph.exit.i.i.i.i.i: ; preds = %44
  store i64 0, ptr %.0.i.i.i, align 8
  br label %_ZN10WriterHostI11EncoderHostI20BigEndianEncoderImplS1_ES0_I20Varint128EncoderImplS1_E30AcquireReleaseMemoryWriterHostI7AdapterI18JfrCheckpointFlushE8StackObjEE5writeImEEPhPKT_mSD_.exit.i.i

_ZN20BigEndianEncoderImpl6encodeImEEmT_Ph.exit.i.thread.i.i.i.i: ; preds = %44
  store i64 0, ptr %.0.i.i.i, align 1
  br label %_ZN10WriterHostI11EncoderHostI20BigEndianEncoderImplS1_ES0_I20Varint128EncoderImplS1_E30AcquireReleaseMemoryWriterHostI7AdapterI18JfrCheckpointFlushE8StackObjEE5writeImEEPhPKT_mSD_.exit.i.i

_ZN10WriterHostI11EncoderHostI20BigEndianEncoderImplS1_ES0_I20Varint128EncoderImplS1_E30AcquireReleaseMemoryWriterHostI7AdapterI18JfrCheckpointFlushE8StackObjEE5writeImEEPhPKT_mSD_.exit.i.i: ; preds = %_ZN20BigEndianEncoderImpl6encodeImEEmT_Ph.exit.i.thread.i.i.i.i, %_ZN20BigEndianEncoderImpl6encodeImEEmT_Ph.exit.i.i.i.i.i, %43
  %.pn.i.i.i = phi i64 [ 8, %_ZN20BigEndianEncoderImpl6encodeImEEmT_Ph.exit.i.i.i.i.i ], [ 8, %_ZN20BigEndianEncoderImpl6encodeImEEmT_Ph.exit.i.thread.i.i.i.i ], [ 1, %43 ]
  %48 = getelementptr inbounds i8, ptr %.0.i.i.i, i64 %.pn.i.i.i
  store ptr %48, ptr %14, align 8
  br label %_ZN10WriterHostI11EncoderHostI20BigEndianEncoderImplS1_ES0_I20Varint128EncoderImplS1_E30AcquireReleaseMemoryWriterHostI7AdapterI18JfrCheckpointFlushE8StackObjEE5writeImEEvT_.exit

_ZN10WriterHostI11EncoderHostI20BigEndianEncoderImplS1_ES0_I20Varint128EncoderImplS1_E30AcquireReleaseMemoryWriterHostI7AdapterI18JfrCheckpointFlushE8StackObjEE5writeImEEvT_.exit: ; preds = %10, %_ZN10WriterHostI11EncoderHostI20BigEndianEncoderImplS1_ES0_I20Varint128EncoderImplS1_E30AcquireReleaseMemoryWriterHostI7AdapterI18JfrCheckpointFlushE8StackObjEE11ensure_sizeEm.exit.i.i, %_ZN10WriterHostI11EncoderHostI20BigEndianEncoderImplS1_ES0_I20Varint128EncoderImplS1_E30AcquireReleaseMemoryWriterHostI7AdapterI18JfrCheckpointFlushE8StackObjEE5writeImEEPhPKT_mSD_.exit.i.i
  %49 = load ptr, ptr @_ZL10_artifacts, align 8
  %50 = call noundef i64 @_ZN14JfrArtifactSet14bootstrap_nameEb(ptr noundef nonnull align 8 dereferenceable(41) %49, i1 noundef zeroext %2) #9
  call void @_ZN10WriterHostI11EncoderHostI20BigEndianEncoderImplS1_ES0_I20Varint128EncoderImplS1_E30AcquireReleaseMemoryWriterHostI7AdapterI18JfrCheckpointFlushE8StackObjEE5writeImEEvT_(ptr noundef nonnull align 8 dereferenceable(41) %0, i64 noundef %50)
  br label %60

51:                                               ; preds = %3
  %52 = getelementptr i8, ptr %6, i64 168
  %.val = load i64, ptr %52, align 8
  %53 = lshr i64 %.val, 16
  tail call void @_ZN10WriterHostI11EncoderHostI20BigEndianEncoderImplS1_ES0_I20Varint128EncoderImplS1_E30AcquireReleaseMemoryWriterHostI7AdapterI18JfrCheckpointFlushE8StackObjEE5writeImEEvT_(ptr noundef nonnull align 8 dereferenceable(41) %0, i64 noundef %53)
  %54 = getelementptr inbounds i8, ptr %1, i64 136
  %55 = load ptr, ptr %54, align 8
  %.not.i = icmp eq ptr %55, null
  br i1 %.not.i, label %_ZL11mark_symbolP6Symbolb.exit, label %56

56:                                               ; preds = %51
  %57 = load ptr, ptr @_ZL10_artifacts, align 8
  %58 = tail call noundef i64 @_ZN14JfrArtifactSet4markEPK6Symbolb(ptr noundef nonnull align 8 dereferenceable(41) %57, ptr noundef nonnull %55, i1 noundef zeroext %2) #9
  br label %_ZL11mark_symbolP6Symbolb.exit

_ZL11mark_symbolP6Symbolb.exit:                   ; preds = %51, %56
  %59 = phi i64 [ %58, %56 ], [ 0, %51 ]
  tail call void @_ZN10WriterHostI11EncoderHostI20BigEndianEncoderImplS1_ES0_I20Varint128EncoderImplS1_E30AcquireReleaseMemoryWriterHostI7AdapterI18JfrCheckpointFlushE8StackObjEE5writeImEEvT_(ptr noundef nonnull align 8 dereferenceable(41) %0, i64 noundef %59)
  br label %60

60:                                               ; preds = %_ZL11mark_symbolP6Symbolb.exit, %_ZN10WriterHostI11EncoderHostI20BigEndianEncoderImplS1_ES0_I20Varint128EncoderImplS1_E30AcquireReleaseMemoryWriterHostI7AdapterI18JfrCheckpointFlushE8StackObjEE5writeImEEvT_.exit
  ret void
}